target datalayout = "e-m:e-p270:32:32-p271:32:32-p272:64:64-i64:64-i128:128-f80:128-n8:16:32:64-S128"
target triple = "x86_64-pc-linux-gnu"

%class.QString = type { %struct.QArrayDataPointer }
%struct.QArrayDataPointer = type { ptr, ptr, i64 }
%struct._address = type { i32, i32, ptr, ptr }
%class.Iax2AnalysisDialog = type { %class.WiresharkDialog.base, ptr, %struct._rtpstream_id, %struct._rtpstream_id, %struct._tap_iax2_stat_t, %struct._tap_iax2_stat_t, ptr, ptr, %class.QList.1, %class.QList.5, %class.QList.5, %class.QList.5, %class.QList.5, %class.QList.5, %class.QList.5, %class.QString, i32, %class.QMenu, %class.QMenu }
%class.WiresharkDialog.base = type <{ %class.GeometryStateDialog, ptr, i8, [7 x i8], %class.QString, %class.QList, i32, i8 }>
%class.GeometryStateDialog = type { %class.QDialog, %class.QString, ptr }
%class.QDialog = type { %class.QWidget }
%class.QWidget = type { %class.QObject, %class.QPaintDevice.base, ptr }
%class.QObject = type { ptr, %class.QScopedPointer }
%class.QScopedPointer = type { ptr }
%class.QPaintDevice.base = type <{ ptr, i16 }>
%class.QList = type { %struct.QArrayDataPointer.0 }
%struct.QArrayDataPointer.0 = type { ptr, ptr, i64 }
%struct._rtpstream_id = type { %struct._address, i16, %struct._address, i16, i32 }
%struct._tap_iax2_stat_t = type { i8, i32, i16, i32, i32, double, [300 x %struct._iax2_bw_history_item], i16, i16, i32, double, double, double, double, double, double, double, double, i32, i16, i16, i32, i32, i8, i32, i16, i32 }
%struct._iax2_bw_history_item = type { double, i32 }
%class.QList.1 = type { %struct.QArrayDataPointer.4 }
%struct.QArrayDataPointer.4 = type { ptr, ptr, i64 }
%class.QList.5 = type { %struct.QArrayDataPointer.8 }
%struct.QArrayDataPointer.8 = type { ptr, ptr, i64 }
%class.QMenu = type { %class.QWidget }
%class.Ui_Iax2AnalysisDialog = type { ptr, ptr, ptr, ptr, ptr, ptr, ptr, ptr, ptr, ptr, ptr, ptr, ptr, ptr, ptr, ptr, ptr, ptr, ptr, ptr, ptr, ptr, ptr, ptr, ptr, ptr, ptr, ptr, ptr, ptr, ptr, ptr, ptr, ptr }

; Function Attrs: mustprogress null_pointer_is_valid sspstrong uwtable
define void @_ZN18Iax2AnalysisDialog26on_fJitterCheckBox_toggledEb(ptr noundef align 8 dereferenceable_or_null(10448) %0, i1 noundef zeroext %1) #0 align 2 {
  %3 = alloca ptr, align 8
  %4 = alloca i8, align 1
  store ptr %0, ptr %3, align 8
  %5 = zext i1 %1 to i8
  store i8 %5, ptr %4, align 1
  %6 = load ptr, ptr %3, align 8
  %7 = getelementptr inbounds nuw %class.Iax2AnalysisDialog, ptr %6, i32 0, i32 1
  %8 = load ptr, ptr %7, align 8
  %9 = getelementptr inbounds nuw %class.Ui_Iax2AnalysisDialog, ptr %8, i32 0, i32 19
  %10 = load ptr, ptr %9, align 8
  %11 = call noundef ptr @_ZNK11QCustomPlot5graphEi(ptr noundef align 8 dereferenceable_or_null(513) %10, i32 noundef 0)
  %12 = load i8, ptr %4, align 1, !range !11, !noundef !12
  %13 = trunc i8 %12 to i1
  call void @_ZN12QCPLayerable10setVisibleEb(ptr noundef align 8 dereferenceable_or_null(57) %11, i1 noundef zeroext %13)
  call void @_ZN18Iax2AnalysisDialog11updateGraphEv(ptr noundef align 8 dereferenceable_or_null(10448) %6)
  ret void
}